target datalayout = "e-m:e-p270:32:32-p271:32:32-p272:64:64-i64:64-i128:128-f80:128-n8:16:32:64-S128"
target triple = "x86_64-pc-linux-gnu"

%struct.Clobbers = type { [4 x i64] }
%struct.__va_list_tag = type { i32, i32, ptr, ptr }

; Function Attrs: nounwind uwtable
define internal void @clobbers_make_from(ptr dead_on_unwind noalias writable sret(%struct.Clobbers) align 8 %0, ptr noundef byval(%struct.Clobbers) align 8 %1, ...) #0 {
  %3 = alloca [1 x %struct.__va_list_tag], align 16
  %4 = alloca i32, align 4
  %5 = alloca i32, align 4
  %6 = alloca i32, align 4
  %7 = getelementptr inbounds [1 x %struct.__va_list_tag], ptr %3, i64 0, i64 0
  call void @llvm.va_start.p0(ptr %7)
  br label %8

8:                                                ; preds = %26, %2
  %9 = getelementptr inbounds [1 x %struct.__va_list_tag], ptr %3, i64 0, i64 0
  %10 = getelementptr inbounds %struct.__va_list_tag, ptr %9, i32 0, i32 0
  %11 = load i32, ptr %10, align 16
  %12 = icmp ule i32 %11, 40
  br i1 %12, label %13, label %18

13:                                               ; preds = %8
  %14 = getelementptr inbounds %struct.__va_list_tag, ptr %9, i32 0, i32 3
  %15 = load ptr, ptr %14, align 16
  %16 = getelementptr i8, ptr %15, i32 %11
  %17 = add i32 %11, 8
  store i32 %17, ptr %10, align 16
  br label %22

18:                                               ; preds = %8
  %19 = getelementptr inbounds %struct.__va_list_tag, ptr %9, i32 0, i32 2
  %20 = load ptr, ptr %19, align 8
  %21 = getelementptr i8, ptr %20, i32 8
  store ptr %21, ptr %19, align 8
  br label %22

22:                                               ; preds = %18, %13
  %23 = phi ptr [ %16, %13 ], [ %20, %18 ]
  %24 = load i32, ptr %23, align 4
  store i32 %24, ptr %4, align 4
  %25 = icmp sgt i32 %24, -1
  br i1 %25, label %26, label %40

26:                                               ; preds = %22
  %27 = load i32, ptr %4, align 4
  %28 = srem i32 %27, 64
  store i32 %28, ptr %5, align 4
  %29 = load i32, ptr %4, align 4
  %30 = sdiv i32 %29, 64
  store i32 %30, ptr %6, align 4
  %31 = load i32, ptr %5, align 4
  %32 = zext i32 %31 to i64
  %33 = shl i64 1, %32
  %34 = getelementptr inbounds %struct.Clobbers, ptr %1, i32 0, i32 0
  %35 = load i32, ptr %6, align 4
  %36 = zext i32 %35 to i64
  %37 = getelementptr inbounds [4 x i64], ptr %34, i64 0, i64 %36
  %38 = load i64, ptr %37, align 8
  %39 = or i64 %38, %33
  store i64 %39, ptr %37, align 8
  br label %8, !llvm.loop !37

40:                                               ; preds = %22
  %41 = getelementptr inbounds [1 x %struct.__va_list_tag], ptr %3, i64 0, i64 0
  call void @llvm.va_end.p0(ptr %41)
  call void @llvm.memcpy.p0.p0.i64(ptr align 8 %0, ptr align 8 %1, i64 32, i1 false)
  ret void
}