; Function Attrs: nofree norecurse nosync nounwind uwtable
define internal void @clobbers_make_from(ptr dead_on_unwind noalias nocapture writable writeonly sret(%struct.Clobbers) align 8 %0, ptr nocapture noundef byval(%struct.Clobbers) align 8 %1, ...) unnamed_addr #3 {
  %3 = alloca [1 x %struct.__va_list_tag], align 16
  call void @llvm.va_start.p0(ptr nonnull %3)
  %.promoted = load i32, ptr %3, align 16
  %4 = getelementptr inbounds i8, ptr %3, i64 8
  %5 = getelementptr inbounds i8, ptr %3, i64 16
  %6 = load ptr, ptr %5, align 16
  %.promoted5 = load ptr, ptr %4, align 8
  br label %7

7:                                                ; preds = %23, %2
  %8 = phi ptr [ %18, %23 ], [ %.promoted5, %2 ]
  %9 = phi i32 [ %19, %23 ], [ %.promoted, %2 ]
  %10 = icmp ult i32 %9, 41
  br i1 %10, label %11, label %15

11:                                               ; preds = %7
  %12 = zext nneg i32 %9 to i64
  %13 = getelementptr i8, ptr %6, i64 %12
  %14 = add nuw nsw i32 %9, 8
  store i32 %14, ptr %3, align 16
  br label %17

15:                                               ; preds = %7
  %16 = getelementptr i8, ptr %8, i64 8
  store ptr %16, ptr %4, align 8
  br label %17

17:                                               ; preds = %15, %11
  %18 = phi ptr [ %8, %11 ], [ %16, %15 ]
  %19 = phi i32 [ %14, %11 ], [ %9, %15 ]
  %20 = phi ptr [ %13, %11 ], [ %8, %15 ]
  %21 = load i32, ptr %20, align 4
  %22 = icmp sgt i32 %21, -1
  br i1 %22, label %23, label %32

23:                                               ; preds = %17
  %24 = and i32 %21, 63
  %25 = lshr i32 %21, 6
  %26 = zext nneg i32 %24 to i64
  %27 = shl nuw i64 1, %26
  %28 = zext nneg i32 %25 to i64
  %29 = getelementptr inbounds [4 x i64], ptr %1, i64 0, i64 %28
  %30 = load i64, ptr %29, align 8
  %31 = or i64 %30, %27
  store i64 %31, ptr %29, align 8
  br label %7, !llvm.loop !38

32:                                               ; preds = %17
  call void @llvm.va_end.p0(ptr nonnull %3)
  call void @llvm.memcpy.p0.p0.i64(ptr noundef nonnull align 8 dereferenceable(32) %0, ptr noundef nonnull align 8 dereferenceable(32) %1, i64 32, i1 false)
  ret void
}